; ModuleID = '44/1241.c'
source_filename = "44/1241.c"
target datalayout = "e-m:e-p270:32:32-p271:32:32-p272:64:64-i64:64-f80:128-n8:16:32:64-S128"
target triple = "x86_64-pc-linux-gnu"

@.str = private unnamed_addr constant [3 x i8] c"%d\00", align 1
@.str.1 = private unnamed_addr constant [4 x i8] c"%d\0A\00", align 1

; Function Attrs: noinline nounwind uwtable
define dso_local void @main() #0 {
  %1 = alloca i32, align 4
  %2 = alloca i32, align 4
  %3 = alloca [6 x i32], align 16
  store i32 1, i32* %1, align 4
  br label %4

4:                                                ; preds = %12, %0
  %5 = load i32, i32* %1, align 4
  %6 = icmp sle i32 %5, 6
  br i1 %6, label %7, label %15

7:                                                ; preds = %4
  %8 = load i32, i32* %1, align 4
  %9 = sext i32 %8 to i64
  %10 = getelementptr inbounds [6 x i32], [6 x i32]* %3, i64 0, i64 %9
  %11 = call i32 (i8*, ...) @__isoc99_scanf(i8* getelementptr inbounds ([3 x i8], [3 x i8]* @.str, i64 0, i64 0), i32* %10)
  br label %12

12:                                               ; preds = %7
  %13 = load i32, i32* %1, align 4
  %14 = add nsw i32 %13, 1
  store i32 %14, i32* %1, align 4
  br label %4

15:                                               ; preds = %4
  store i32 1, i32* %1, align 4
  br label %16

16:                                               ; preds = %26, %15
  %17 = load i32, i32* %1, align 4
  %18 = icmp sle i32 %17, 6
  br i1 %18, label %19, label %29

19:                                               ; preds = %16
  %20 = load i32, i32* %1, align 4
  %21 = sext i32 %20 to i64
  %22 = getelementptr inbounds [6 x i32], [6 x i32]* %3, i64 0, i64 %21
  %23 = load i32, i32* %22, align 4
  %24 = call i32 @cal(i32 %23)
  %25 = call i32 (i8*, ...) @printf(i8* getelementptr inbounds ([4 x i8], [4 x i8]* @.str.1, i64 0, i64 0), i32 %24)
  br label %26

26:                                               ; preds = %19
  %27 = load i32, i32* %1, align 4
  %28 = add nsw i32 %27, 1
  store i32 %28, i32* %1, align 4
  br label %16

29:                                               ; preds = %16
  ret void
}

declare dso_local i32 @__isoc99_scanf(i8*, ...) #1

declare dso_local i32 @printf(i8*, ...) #1

; Function Attrs: noinline nounwind uwtable
define dso_local i32 @cal(i32 %0) #0 {
  %2 = alloca i32, align 4
  %3 = alloca i32, align 4
  %4 = alloca i32, align 4
  %5 = alloca i32, align 4
  store i32 %0, i32* %3, align 4
  store i32 0, i32* %4, align 4
  store i32 0, i32* %5, align 4
  %6 = load i32, i32* %3, align 4
  %7 = icmp slt i32 %6, 0
  br i1 %7, label %8, label %11

8:                                                ; preds = %1
  %9 = load i32, i32* %3, align 4
  %10 = sub nsw i32 0, %9
  store i32 %10, i32* %3, align 4
  store i32 1, i32* %5, align 4
  br label %11

11:                                               ; preds = %8, %1
  br label %12

12:                                               ; preds = %15, %11
  %13 = load i32, i32* %3, align 4
  %14 = icmp ne i32 %13, 0
  br i1 %14, label %15, label %23

15:                                               ; preds = %12
  %16 = load i32, i32* %4, align 4
  %17 = mul nsw i32 %16, 10
  %18 = load i32, i32* %3, align 4
  %19 = srem i32 %18, 10
  %20 = add nsw i32 %17, %19
  store i32 %20, i32* %4, align 4
  %21 = load i32, i32* %3, align 4
  %22 = sdiv i32 %21, 10
  store i32 %22, i32* %3, align 4
  br label %12

23:                                               ; preds = %12
  %24 = load i32, i32* %5, align 4
  %25 = icmp eq i32 %24, 1
  br i1 %25, label %26, label %29

26:                                               ; preds = %23
  %27 = load i32, i32* %4, align 4
  %28 = sub nsw i32 0, %27
  store i32 %28, i32* %2, align 4
  br label %31

29:                                               ; preds = %23
  %30 = load i32, i32* %4, align 4
  store i32 %30, i32* %2, align 4
  br label %31

31:                                               ; preds = %29, %26
  %32 = load i32, i32* %2, align 4
  ret i32 %32
}


!llvm.module.flags = !{!0}
!llvm.ident = !{!1}

!0 = !{i32 1, !"wchar_size", i32 4}
!1 = !{!"clang version 10.0.0-4ubuntu1 "}
